(dp0
Vsg_bundle_data
p1
(dp2
Vtype
p3
VCustomNonProjectEntity02
p4
sVid
p5
I231
sVsg_system_name
p6
Vtk-multi-publish2
p7
sVsg_status_list
p8
Vdepl
p9
sVsg_deprecation_message
p10
NssVsg_version_data
p11
(dp12
Vtype
p13
VCustomNonProjectEntity05
p14
sVid
p15
I7678
sVcode
p16
Vv2.10.4
p17
sVsg_status_list
p18
Vprod
p19
sVdescription
p20
V* Set the Text Format on the **description** box so Qt will strip whitespace even if no HTML tags
p21
sVtags
p22
(lp23
sVsg_detailed_release_notes
p24
NsVsg_documentation
p25
(dp26
Vurl
p27
Vhttps://developer.shotgridsoftware.com/115000097513
p28
sVname
p29
VDocumentation
p30
sVcontent_type
p31
NsVlink_type
p32
Vweb
p33
sg13
VAttachment
p34
sg15
I35451
ssVsg_payload
p35
(dp36
g27
Vhttps://s3-proxy.shotgunstudio.com/d18c13bf0e59a9a82f18be518a1b6b508bcbd774/5483f6e0c56e657d09c7fd97646e0724c0fff21f/tk-multi-publish2_v2.10.4.zip?response-content-disposition=filename%3D%22tk-multi-publish2_v2.10.4.zip%22&x-amz-meta-user-id=42&x-amz-meta-user-type=ApiUser&X-Amz-Algorithm=AWS4-HMAC-SHA256&X-Amz-Credential=ASIAYJG6Z4JIZBXPK4F5%2F20250813%2Fus-west-2%2Fs3%2Faws4_request&X-Amz-Date=20250813T155828Z&X-Amz-SignedHeaders=host&X-Amz-Expires=900&X-Amz-Security-Token=IQoJb3JpZ2luX2VjEOj%2F%2F%2F%2F%2F%2F%2F%2F%2F%2FwEaCXVzLWVhc3QtMSJGMEQCIFH1QMqvm5Hv%2B3Qbpp2R6GFejmEccsIiZhwL36Jri8hxAiAy6wEjQln3JIsIQZbS6Yn4JXhCt9elZoQ%2FTKwz4a7BqyqYAggxEAAaDDU2OTU1MDQzMDgwMSIMZAPTbcLnbkVXyYCKKvUBlM4KCV1SVjUswpZn38Gddh5DTp2RlpIYkafBf%2FduXEuaRFoKAOdM99fwhM97d0AeTgBK%2F2SEi9tPRECHNeXzHPeHiJ6TgQxOtX0XjZ3ywQJeykJhaWSX6kP95A%2FqCU7N6wcNR6E0UsM9pPS%2BL3LgyEEj36b%2FjQuXcSIgybk1dTMqKNhPx4RUZ%2F530g8jp9arIFn6bmtuK7jXm%2F8U0VgOXCe1lcXbo%2B2kTgMLrbVHocoYqGhuk7kJ4jsYiRIyNQVvNH1PPfIM4uwe2mb1yq8SvMuSh%2F6ohh81wYbYsaS5BE7dPgYPh3OXGnPcU1axWeuBEOvL8A4wiufyxAY6ngEr1YDxJNS0LXrXAqm82ft8tjMckBRrES0tmGKrObSqy7fPJXtFYcvqjBgCmLTulhTnYVFfFDsQN0FHqMYR3I5GloE%2FF5nxs19nAlB0T%2FECfkwxeHfkVX5QV1H5WjRHB7Uv%2ByrsM7RirNpCX6sGZ6YxxSRJNI05auAF8tGNmArSYSgqU5WDUyHsRY9bE7YYG9dEMip%2BndK1LohRB4EoHg%3D%3D&X-Amz-Signature=073b979ad7a49c5ad94842c0e327cf364c30e1cff40e89ffc35c93678d98523f
p37
sg29
Vtk-multi-publish2_v2.10.4.zip
p38
sg31
Vapplication/zip
p39
sg32
Vupload
p40
sg13
VAttachment
p41
sg15
I35452
sss.