(dp1
S'sg_version_data'
p2
(dp3
S'code'
p4
S'v0.4.1'
p5
sS'description'
p6
S'Updates the otl files for Houdini 18 so the node better matches the native Alembic node.'
p7
sS'tags'
p8
(lp9
sS'sg_payload'
p10
(dp11
S'name'
p12
S'tk-houdini-alembicnode_v0.4.1.zip'
p13
sS'url'
p14
S'https://s3-proxy.shotgunstudio.com/d18c13bf0e59a9a82f18be518a1b6b508bcbd774/8676e0917627e1585f72e88234b6a179b5b54157/tk-houdini-alembicnode_v0.4.1.zip?response-content-disposition=filename%3D%22tk-houdini-alembicnode_v0.4.1.zip%22&x-amz-meta-user-id=42&x-amz-meta-user-type=ApiUser&X-Amz-Algorithm=AWS4-HMAC-SHA256&X-Amz-Credential=ASIAYJG6Z4JIYUFGRXQ2%2F20210927%2Fus-west-2%2Fs3%2Faws4_request&X-Amz-Date=20210927T073620Z&X-Amz-Expires=900&X-Amz-SignedHeaders=host&X-Amz-Security-Token=FwoGZXIvYXdzEDEaDO6qoxpp3d4hLBZ2lyKvAXrA5i6q15A6eP743gnKdcmv1M8knj2BAAhZCDL1b3i0i3UnCHrTfKVgHMmrgnIDmO1Y%2FtbKsT5qBRptw2ZL4xSXDNBN2K3uMOKSaGoepI2KZmxrrtGDgfwoSInJ%2Fy1yfePS80fyuXZ8Ok6cv2qqic1Q2YirKuUKbgN1cwRQ2Brk0bF2ZTsIo%2BC38iStpr9U0ozRIPhMa%2BgyiwVtIQa6tZrybqOWHOu6CrM%2BF0PLM%2F4ohuLFigYyLSg00fQdmL0dkpKIW9whhyftQw3t9NxFhny4D7gSBfdcxUVUbRF7J6zLpXbNAw%3D%3D&X-Amz-Signature=536e12f1781d7f0c781ea70f08f644b7a274095ecef706ff544203b4768a5892'
p15
sS'content_type'
p16
S'application/zip'
p17
sS'type'
p18
S'Attachment'
p19
sS'id'
p20
I22211
sS'link_type'
p21
S'upload'
p22
ssS'sg_status_list'
p23
S'prod'
p24
sS'sg_detailed_release_notes'
p25
(dp26
S'name'
p27
S'v0.4.1'
p28
sS'url'
p29
S'https://support.shotgunsoftware.com/hc/en-us/articles/219039988#v0.4.1'
p30
sS'content_type'
p31
NsS'type'
p32
S'Attachment'
p33
sS'id'
p34
I22208
sS'link_type'
p35
S'web'
p36
ssS'sg_documentation'
p37
(dp38
S'name'
p39
S'Documentation'
p40
sS'url'
p41
S'https://support.shotgunsoftware.com/hc/en-us/articles/219039988'
p42
sS'content_type'
p43
NsS'type'
p44
S'Attachment'
p45
sS'id'
p46
I22210
sS'link_type'
p47
S'web'
p48
ssS'type'
p49
S'CustomNonProjectEntity05'
p50
sS'id'
p51
I3042
ssS'sg_bundle_data'
p52
(dp53
S'sg_status_list'
p54
S'depl'
p55
sS'type'
p56
S'CustomNonProjectEntity02'
p57
sS'id'
p58
I95
sS'sg_system_name'
p59
S'tk-houdini-alembicnode'
p60
sS'sg_deprecation_message'
p61
Nss.